; Function Attrs: mustprogress nounwind uwtable
define dso_local void @_ZN3net22QuicCryptoServerConfig49BuildServerConfigUpdateMessageProofSourceCallbackD2Ev(ptr noundef nonnull align 8 dereferenceable(192) %this) unnamed_addr #4 align 2 personality ptr @__gxx_personality_v0 {
entry:
  store ptr getelementptr inbounds ({ [5 x ptr] }, ptr @_ZTVN3net22QuicCryptoServerConfig49BuildServerConfigUpdateMessageProofSourceCallbackE, i64 0, i32 0, i64 2), ptr %this, align 8
  %cb_ = getelementptr inbounds i8, ptr %this, i64 184
  %0 = load ptr, ptr %cb_, align 8
  %cmp.not.i = icmp eq ptr %0, null
  br i1 %cmp.not.i, label %_ZNSt10unique_ptrIN3net44BuildServerConfigUpdateMessageResultCallbackESt14default_deleteIS1_EED2Ev.exit, label %_ZNKSt14default_deleteIN3net44BuildServerConfigUpdateMessageResultCallbackEEclEPS1_.exit.i

_ZNKSt14default_deleteIN3net44BuildServerConfigUpdateMessageResultCallbackEEclEPS1_.exit.i: ; preds = %entry
  %vtable.i.i = load ptr, ptr %0, align 8
  %vfn.i.i = getelementptr inbounds i8, ptr %vtable.i.i, i64 8
  %1 = load ptr, ptr %vfn.i.i, align 8
  tail call void %1(ptr noundef nonnull align 8 dereferenceable(8) %0) #20
  br label %_ZNSt10unique_ptrIN3net44BuildServerConfigUpdateMessageResultCallbackESt14default_deleteIS1_EED2Ev.exit

_ZNSt10unique_ptrIN3net44BuildServerConfigUpdateMessageResultCallbackESt14default_deleteIS1_EED2Ev.exit: ; preds = %entry, %_ZNKSt14default_deleteIN3net44BuildServerConfigUpdateMessageResultCallbackEEclEPS1_.exit.i
  store ptr null, ptr %cb_, align 8
  %message_ = getelementptr inbounds i8, ptr %this, i64 112
  tail call void @_ZN3net22CryptoHandshakeMessageD1Ev(ptr noundef nonnull align 8 dereferenceable(72) %message_) #20
  %client_cached_cert_hashes_ = getelementptr inbounds i8, ptr %this, i64 72
  tail call void @_ZNSt7__cxx1112basic_stringIcSt11char_traitsIcESaIcEED1Ev(ptr noundef nonnull align 8 dereferenceable(32) %client_cached_cert_hashes_) #20
  %client_common_set_hashes_ = getelementptr inbounds i8, ptr %this, i64 40
  tail call void @_ZNSt7__cxx1112basic_stringIcSt11char_traitsIcESaIcEED1Ev(ptr noundef nonnull align 8 dereferenceable(32) %client_common_set_hashes_) #20
  ret void
}